; Function Attrs: nounwind uwtable
define internal ptr @weakref_richcompare(ptr noundef readonly %0, ptr noundef readonly %1, i32 noundef %2) #0 {
  %4 = add i32 %2, -4
  %or.cond = icmp ult i32 %4, -2
  br i1 %or.cond, label %Py_DECREF.exit37, label %5

5:                                                ; preds = %3
  %6 = getelementptr i8, ptr %0, i64 8
  %.val44 = load ptr, ptr %6, align 8, !tbaa !4
  %.not.i46 = icmp eq ptr %.val44, @_PyWeakref_RefType
  br i1 %.not.i46, label %PyObject_TypeCheck.exit.thread, label %PyObject_TypeCheck.exit

PyObject_TypeCheck.exit:                          ; preds = %5
  %7 = tail call i32 @PyType_IsSubtype(ptr noundef %.val44, ptr noundef nonnull @_PyWeakref_RefType) #6
  %.not67 = icmp eq i32 %7, 0
  br i1 %.not67, label %8, label %PyObject_TypeCheck.exit.thread

8:                                                ; preds = %PyObject_TypeCheck.exit
  %.val = load ptr, ptr %6, align 8, !tbaa !4
  %.not = icmp eq ptr %.val, @_PyWeakref_ProxyType
  %.not68 = icmp eq ptr %.val, @_PyWeakref_CallableProxyType
  %or.cond72 = or i1 %.not, %.not68
  br i1 %or.cond72, label %PyObject_TypeCheck.exit.thread, label %Py_DECREF.exit37

PyObject_TypeCheck.exit.thread:                   ; preds = %5, %8, %PyObject_TypeCheck.exit
  %9 = getelementptr i8, ptr %1, i64 8
  %.val45 = load ptr, ptr %9, align 8, !tbaa !4
  %.not.i47 = icmp eq ptr %.val45, @_PyWeakref_RefType
  br i1 %.not.i47, label %PyObject_TypeCheck.exit48.thread, label %PyObject_TypeCheck.exit48

PyObject_TypeCheck.exit48:                        ; preds = %PyObject_TypeCheck.exit.thread
  %10 = tail call i32 @PyType_IsSubtype(ptr noundef %.val45, ptr noundef nonnull @_PyWeakref_RefType) #6
  %.not69 = icmp eq i32 %10, 0
  br i1 %.not69, label %11, label %PyObject_TypeCheck.exit48.thread

11:                                               ; preds = %PyObject_TypeCheck.exit48
  %.val40 = load ptr, ptr %9, align 8, !tbaa !4
  %.not70 = icmp eq ptr %.val40, @_PyWeakref_ProxyType
  %.not71 = icmp eq ptr %.val40, @_PyWeakref_CallableProxyType
  %or.cond73 = or i1 %.not70, %.not71
  br i1 %or.cond73, label %PyObject_TypeCheck.exit48.thread, label %Py_DECREF.exit37

PyObject_TypeCheck.exit48.thread:                 ; preds = %PyObject_TypeCheck.exit.thread, %11, %PyObject_TypeCheck.exit48
  %12 = getelementptr i8, ptr %0, i64 16
  %.val42 = load ptr, ptr %12, align 8, !tbaa !37
  %13 = icmp eq ptr %.val42, @_Py_NoneStruct
  br i1 %13, label %_PyWeakref_GET_REF.exit, label %14

14:                                               ; preds = %PyObject_TypeCheck.exit48.thread
  %.val.i.i = load i32, ptr %.val42, align 8, !tbaa !42
  %.not.i.i = icmp eq i32 %.val.i.i, 0
  br i1 %.not.i.i, label %_PyWeakref_GET_REF.exit, label %15

15:                                               ; preds = %14
  %16 = icmp slt i32 %.val.i.i, 0
  br i1 %16, label %_PyWeakref_GET_REF.exit, label %17

17:                                               ; preds = %15
  %18 = add nuw i32 %.val.i.i, 1
  store i32 %18, ptr %.val42, align 8, !tbaa !42
  br label %_PyWeakref_GET_REF.exit

_PyWeakref_GET_REF.exit:                          ; preds = %PyObject_TypeCheck.exit48.thread, %14, %15, %17
  %.0.i = phi ptr [ null, %PyObject_TypeCheck.exit48.thread ], [ null, %14 ], [ %.val42, %15 ], [ %.val42, %17 ]
  %19 = getelementptr i8, ptr %1, i64 16
  %.val43 = load ptr, ptr %19, align 8, !tbaa !37
  %20 = icmp eq ptr %.val43, @_Py_NoneStruct
  br i1 %20, label %_PyWeakref_GET_REF.exit52.thread, label %21

21:                                               ; preds = %_PyWeakref_GET_REF.exit
  %.val.i.i49 = load i32, ptr %.val43, align 8, !tbaa !42
  %.not.i.i50 = icmp eq i32 %.val.i.i49, 0
  br i1 %.not.i.i50, label %_PyWeakref_GET_REF.exit52.thread, label %22

22:                                               ; preds = %21
  %23 = icmp slt i32 %.val.i.i49, 0
  br i1 %23, label %_PyWeakref_GET_REF.exit52, label %24

24:                                               ; preds = %22
  %25 = add nuw i32 %.val.i.i49, 1
  store i32 %25, ptr %.val43, align 8, !tbaa !42
  br label %_PyWeakref_GET_REF.exit52

_PyWeakref_GET_REF.exit52.thread:                 ; preds = %_PyWeakref_GET_REF.exit, %21
  %26 = icmp eq ptr %.0.i, null
  br i1 %26, label %Py_XDECREF.exit57, label %28

_PyWeakref_GET_REF.exit52:                        ; preds = %22, %24
  %27 = icmp eq ptr %.0.i, null
  br i1 %27, label %Py_XDECREF.exit, label %39

28:                                               ; preds = %_PyWeakref_GET_REF.exit52.thread
  %29 = load i32, ptr %.0.i, align 8, !tbaa !42
  %.not.i.i54 = icmp sgt i32 %29, -1
  br i1 %.not.i.i54, label %30, label %Py_XDECREF.exit57

30:                                               ; preds = %28
  %31 = add nsw i32 %29, -1
  store i32 %31, ptr %.0.i, align 8, !tbaa !42
  %32 = icmp eq i32 %31, 0
  br i1 %32, label %Py_XDECREF.exit57.sink.split, label %Py_XDECREF.exit57

Py_XDECREF.exit:                                  ; preds = %_PyWeakref_GET_REF.exit52
  %33 = load i32, ptr %.val43, align 8, !tbaa !42
  %.not.i.i56 = icmp sgt i32 %33, -1
  br i1 %.not.i.i56, label %34, label %Py_XDECREF.exit57

34:                                               ; preds = %Py_XDECREF.exit
  %35 = add nsw i32 %33, -1
  store i32 %35, ptr %.val43, align 8, !tbaa !42
  %36 = icmp eq i32 %35, 0
  br i1 %36, label %Py_XDECREF.exit57.sink.split, label %Py_XDECREF.exit57

Py_XDECREF.exit57.sink.split:                     ; preds = %34, %30
  %.0.i.sink = phi ptr [ %.0.i, %30 ], [ %.val43, %34 ]
  tail call void @_Py_Dealloc(ptr noundef nonnull %.0.i.sink) #6
  br label %Py_XDECREF.exit57

Py_XDECREF.exit57:                                ; preds = %Py_XDECREF.exit57.sink.split, %30, %28, %_PyWeakref_GET_REF.exit52.thread, %Py_XDECREF.exit, %34
  %37 = icmp eq ptr %0, %1
  %38 = icmp eq i32 %2, 3
  %spec.select = xor i1 %37, %38
  %.1 = select i1 %spec.select, ptr @_Py_TrueStruct, ptr @_Py_FalseStruct
  br label %Py_DECREF.exit37

39:                                               ; preds = %_PyWeakref_GET_REF.exit52
  %40 = tail call ptr @PyObject_RichCompare(ptr noundef nonnull %.0.i, ptr noundef nonnull %.val43, i32 noundef %2) #6
  %41 = load i32, ptr %.0.i, align 8, !tbaa !42
  %.not.i = icmp sgt i32 %41, -1
  br i1 %.not.i, label %42, label %Py_DECREF.exit

42:                                               ; preds = %39
  %43 = add nsw i32 %41, -1
  store i32 %43, ptr %.0.i, align 8, !tbaa !42
  %44 = icmp eq i32 %43, 0
  br i1 %44, label %45, label %Py_DECREF.exit

45:                                               ; preds = %42
  tail call void @_Py_Dealloc(ptr noundef nonnull %.0.i) #6
  br label %Py_DECREF.exit

Py_DECREF.exit:                                   ; preds = %39, %42, %45
  %46 = load i32, ptr %.val43, align 8, !tbaa !42
  %.not.i36 = icmp sgt i32 %46, -1
  br i1 %.not.i36, label %47, label %Py_DECREF.exit37

47:                                               ; preds = %Py_DECREF.exit
  %48 = add nsw i32 %46, -1
  store i32 %48, ptr %.val43, align 8, !tbaa !42
  %49 = icmp eq i32 %48, 0
  br i1 %49, label %50, label %Py_DECREF.exit37

50:                                               ; preds = %47
  tail call void @_Py_Dealloc(ptr noundef nonnull %.val43) #6
  br label %Py_DECREF.exit37

Py_DECREF.exit37:                                 ; preds = %11, %8, %50, %47, %Py_DECREF.exit, %Py_XDECREF.exit57, %3
  %.0 = phi ptr [ @_Py_NotImplementedStruct, %3 ], [ %.1, %Py_XDECREF.exit57 ], [ %40, %Py_DECREF.exit ], [ %40, %47 ], [ %40, %50 ], [ @_Py_NotImplementedStruct, %8 ], [ @_Py_NotImplementedStruct, %11 ]
  ret ptr %.0
}